(dp1
S'Leds'
p2
(lp3
(I1
I0
F100
F95
F255
tp4
a(I1
I1
F98
F92
F244
tp5
a(I1
I2
F94
F86
F223
tp6
a(I1
I3
F81
F63
F144
tp7
a(I1
I4
F78
F60
F132
tp8
a(I1
I5
F76
F56
F119
tp9
a(I1
I6
F69
F35
F53
tp10
a(I1
I7
F67
F30
F37
tp11
a(I1
I8
F58
F37
F49
tp12
a(I1
I9
F58
F44
F70
tp13
a(I1
I10
F58
F68
F142
tp14
a(I1
I11
F58
F76
F165
tp15
a(I1
I12
F61
F93
F217
tp16
a(I1
I13
F58
F96
F225
tp17
a(I1
I14
F55
F100
F237
tp18
a(I1
I15
F37
F96
F230
tp19
a(I1
I16
F39
F89
F209
tp20
a(I1
I17
F40
F83
F191
tp21
a(I1
I18
F48
F60
F119
tp22
a(I1
I19
F46
F53
F99
tp23
a(I1
I20
F52
F33
F37
tp24
a(I1
I21
F53
F27
F19
tp25
a(I1
I22
F46
F26
F22
tp26
a(I1
I23
F43
F30
F37
tp27
a(I1
I24
F35
F48
F96
tp28
a(I1
I25
F35
F57
F120
tp29
a(I1
I26
F26
F67
F159
tp30
a(I1
I27
F15
F87
F227
tp31
a(I1
I28
F12
F92
F244
tp32
a(I1
I29
F0
F72
F215
tp33
a(I1
I30
F3
F67
F198
tp34
a(I1
I31
F6
F64
F185
tp35
a(I1
I32
F18
F52
F135
tp36
a(I1
I33
F17
F45
F121
tp37
a(I1
I34
F27
F36
F81
tp38
a(I1
I35
F29
F31
F67
tp39
a(I1
I36
F44
F13
F0
tp40
a(I1
I37
F41
F0
F15
tp41
a(I1
I38
F28
F0
F50
tp42
a(I1
I39
F25
F3
F56
tp43
a(I1
I40
F17
F26
F89
tp44
a(I2
I47
F65
F48
F85
tp45
a(I2
I48
F63
F55
F105
tp46
a(I2
I49
F74
F79
F182
tp47
a(I2
I50
F77
F83
F196
tp48
asS'HeartLoc'
p49
(F55
F9
tp50
s.